; Function Attrs: nounwind uwtable
define internal fastcc range(i32 -30, 1) i32 @get_entry_hardlink(ptr noundef %0, ptr noundef %1, ptr noundef nonnull %2, ptr noundef nonnull %3, ptr noundef %4) unnamed_addr #0 {
  %6 = tail call i32 @_archive_entry_hardlink_l(ptr noundef %1, ptr noundef nonnull %2, ptr noundef nonnull %3, ptr noundef %4) #15
  %.not = icmp eq i32 %6, 0
  br i1 %.not, label %12, label %7

7:                                                ; preds = %5
  %8 = tail call ptr @__errno_location() #18
  %9 = load i32, ptr %8, align 4
  %10 = icmp eq i32 %9, 12
  br i1 %10, label %11, label %12

11:                                               ; preds = %7
  tail call void (ptr, i32, ptr, ...) @archive_set_error(ptr noundef %0, i32 noundef 12, ptr noundef nonnull @.str.54) #15
  br label %12

12:                                               ; preds = %5, %7, %11
  %.0 = phi i32 [ -30, %11 ], [ -20, %7 ], [ 0, %5 ]
  ret i32 %.0
}